target datalayout = "e-m:e-p270:32:32-p271:32:32-p272:64:64-i64:64-i128:128-f80:128-n8:16:32:64-S128"
target triple = "x86_64-pc-linux-gnu"

%"class.std::vector" = type { %"struct.std::_Vector_base" }
%"struct.std::_Vector_base" = type { %"struct.std::_Vector_base<long, std::allocator<long>>::_Vector_impl" }
%"struct.std::_Vector_base<long, std::allocator<long>>::_Vector_impl" = type { %"struct.std::_Vector_base<long, std::allocator<long>>::_Vector_impl_data" }
%"struct.std::_Vector_base<long, std::allocator<long>>::_Vector_impl_data" = type { ptr, ptr, ptr }
%"struct.faiss::Index" = type <{ ptr, i32, [4 x i8], i64, i8, i8, [2 x i8], i32, float, [4 x i8] }>
%"struct.faiss::IndexIVF" = type <{ %"struct.faiss::Index.base", [4 x i8], %"struct.faiss::IndexIVFInterface", ptr, i8, [7 x i8], i64, i32, i32, %"struct.faiss::DirectMap", i8, [7 x i8] }>
%"struct.faiss::Index.base" = type <{ ptr, i32, [4 x i8], i64, i8, i8, [2 x i8], i32, float }>
%"struct.faiss::IndexIVFInterface" = type { ptr, %"struct.faiss::Level1Quantizer", i64, i64 }
%"struct.faiss::Level1Quantizer" = type { ptr, i64, i8, i8, [6 x i8], %"struct.faiss::ClusteringParameters", ptr }
%"struct.faiss::ClusteringParameters" = type <{ i32, i32, i8, i8, i8, i8, i8, [3 x i8], i32, i32, i32, [4 x i8], i64, i8, i8, [6 x i8] }>
%"struct.faiss::DirectMap" = type { i32, %"class.std::vector", %"class.std::unordered_map" }
%"class.std::unordered_map" = type { %"class.std::_Hashtable" }
%"class.std::_Hashtable" = type { ptr, i64, %"struct.std::__detail::_Hash_node_base", i64, %"struct.std::__detail::_Prime_rehash_policy", ptr }
%"struct.std::__detail::_Hash_node_base" = type { ptr }
%"struct.std::__detail::_Prime_rehash_policy" = type { float, i64 }

@_ZTVN5faiss17IndexIVFInterfaceE = linkonce_odr unnamed_addr constant { [6 x ptr] } { [6 x ptr] [ptr null, ptr @_ZTIN5faiss17IndexIVFInterfaceE, ptr @__cxa_pure_virtual, ptr @__cxa_pure_virtual, ptr @_ZN5faiss17IndexIVFInterfaceD2Ev, ptr @_ZN5faiss17IndexIVFInterfaceD0Ev] }, comdat, align 8

; Function Attrs: inlinehint mustprogress nounwind uwtable
define linkonce_odr void @_ZN5faiss20ClusteringParametersC2Ev(ptr noundef nonnull align 8 dereferenceable(42) %0) unnamed_addr #5 comdat align 2 {
  %2 = alloca ptr, align 8
  store ptr %0, ptr %2, align 8, !tbaa !140
  %3 = load ptr, ptr %2, align 8
  %4 = getelementptr inbounds nuw %"struct.faiss::ClusteringParameters", ptr %3, i32 0, i32 0
  store i32 25, ptr %4, align 8, !tbaa !142
  %5 = getelementptr inbounds nuw %"struct.faiss::ClusteringParameters", ptr %3, i32 0, i32 1
  store i32 1, ptr %5, align 4, !tbaa !143
  %6 = getelementptr inbounds nuw %"struct.faiss::ClusteringParameters", ptr %3, i32 0, i32 2
  store i8 0, ptr %6, align 8, !tbaa !144
  %7 = getelementptr inbounds nuw %"struct.faiss::ClusteringParameters", ptr %3, i32 0, i32 3
  store i8 0, ptr %7, align 1, !tbaa !145
  %8 = getelementptr inbounds nuw %"struct.faiss::ClusteringParameters", ptr %3, i32 0, i32 4
  store i8 0, ptr %8, align 2, !tbaa !146
  %9 = getelementptr inbounds nuw %"struct.faiss::ClusteringParameters", ptr %3, i32 0, i32 5
  store i8 0, ptr %9, align 1, !tbaa !147
  %10 = getelementptr inbounds nuw %"struct.faiss::ClusteringParameters", ptr %3, i32 0, i32 6
  store i8 0, ptr %10, align 4, !tbaa !148
  %11 = getelementptr inbounds nuw %"struct.faiss::ClusteringParameters", ptr %3, i32 0, i32 8
  store i32 39, ptr %11, align 8, !tbaa !149
  %12 = getelementptr inbounds nuw %"struct.faiss::ClusteringParameters", ptr %3, i32 0, i32 9
  store i32 256, ptr %12, align 4, !tbaa !150
  %13 = getelementptr inbounds nuw %"struct.faiss::ClusteringParameters", ptr %3, i32 0, i32 10
  store i32 1234, ptr %13, align 8, !tbaa !151
  %14 = getelementptr inbounds nuw %"struct.faiss::ClusteringParameters", ptr %3, i32 0, i32 12
  store i64 32768, ptr %14, align 8, !tbaa !152
  %15 = getelementptr inbounds nuw %"struct.faiss::ClusteringParameters", ptr %3, i32 0, i32 13
  store i8 1, ptr %15, align 8, !tbaa !153
  %16 = getelementptr inbounds nuw %"struct.faiss::ClusteringParameters", ptr %3, i32 0, i32 14
  store i8 0, ptr %16, align 1, !tbaa !154
  ret void
}

; Function Attrs: mustprogress nounwind uwtable
define void @_ZN5faiss15Level1QuantizerD2Ev(ptr noundef nonnull align 8 dereferenceable(80) %0) unnamed_addr #1 align 2 {
  %2 = alloca ptr, align 8
  store ptr %0, ptr %2, align 8, !tbaa !134
  %3 = load ptr, ptr %2, align 8
  %4 = getelementptr inbounds nuw %"struct.faiss::Level1Quantizer", ptr %3, i32 0, i32 3
  %5 = load i8, ptr %4, align 1, !tbaa !137, !range !21, !noundef !22
  %6 = trunc i8 %5 to i1
  br i1 %6, label %7, label %16

7:                                                ; preds = %1
  %8 = getelementptr inbounds nuw %"struct.faiss::Level1Quantizer", ptr %3, i32 0, i32 0
  %9 = load ptr, ptr %8, align 8, !tbaa !72
  %10 = icmp eq ptr %9, null
  br i1 %10, label %15, label %11

11:                                               ; preds = %7
  %12 = load ptr, ptr %9, align 8, !tbaa !23
  %13 = getelementptr inbounds ptr, ptr %12, i64 1
  %14 = load ptr, ptr %13, align 8
  call void %14(ptr noundef nonnull align 8 dereferenceable(36) %9) #20
  br label %15

15:                                               ; preds = %11, %7
  br label %16

16:                                               ; preds = %15, %1
  ret void
}

; Function Attrs: mustprogress nounwind uwtable
define void @_ZN5faiss15Level1QuantizerC2EPNS_5IndexEm(ptr noundef nonnull align 8 dereferenceable(80) %0, ptr noundef %1, i64 noundef %2) unnamed_addr #1 align 2 {
  %4 = alloca ptr, align 8
  %5 = alloca ptr, align 8
  %6 = alloca i64, align 8
  store ptr %0, ptr %4, align 8, !tbaa !134
  store ptr %1, ptr %5, align 8, !tbaa !106
  store i64 %2, ptr %6, align 8, !tbaa !9
  %7 = load ptr, ptr %4, align 8
  %8 = getelementptr inbounds nuw %"struct.faiss::Level1Quantizer", ptr %7, i32 0, i32 0
  %9 = load ptr, ptr %5, align 8, !tbaa !106
  store ptr %9, ptr %8, align 8, !tbaa !72
  %10 = getelementptr inbounds nuw %"struct.faiss::Level1Quantizer", ptr %7, i32 0, i32 1
  %11 = load i64, ptr %6, align 8, !tbaa !9
  store i64 %11, ptr %10, align 8, !tbaa !102
  %12 = getelementptr inbounds nuw %"struct.faiss::Level1Quantizer", ptr %7, i32 0, i32 2
  store i8 0, ptr %12, align 8, !tbaa !136
  %13 = getelementptr inbounds nuw %"struct.faiss::Level1Quantizer", ptr %7, i32 0, i32 3
  store i8 0, ptr %13, align 1, !tbaa !137
  %14 = getelementptr inbounds nuw %"struct.faiss::Level1Quantizer", ptr %7, i32 0, i32 5
  call void @_ZN5faiss20ClusteringParametersC2Ev(ptr noundef nonnull align 8 dereferenceable(42) %14) #20
  %15 = getelementptr inbounds nuw %"struct.faiss::Level1Quantizer", ptr %7, i32 0, i32 6
  store ptr null, ptr %15, align 8, !tbaa !138
  %16 = getelementptr inbounds nuw %"struct.faiss::Level1Quantizer", ptr %7, i32 0, i32 5
  %17 = getelementptr inbounds nuw %"struct.faiss::ClusteringParameters", ptr %16, i32 0, i32 0
  store i32 10, ptr %17, align 8, !tbaa !139
  ret void
}

; Function Attrs: mustprogress nounwind uwtable
define linkonce_odr void @_ZN5faiss17IndexIVFInterfaceD2Ev(ptr noundef nonnull align 8 dereferenceable(104) %0) unnamed_addr #1 comdat align 2 {
  %2 = alloca ptr, align 8
  store ptr %0, ptr %2, align 8, !tbaa !226
  %3 = load ptr, ptr %2, align 8
  %4 = getelementptr inbounds i8, ptr %3, i64 8
  call void @_ZN5faiss15Level1QuantizerD2Ev(ptr noundef nonnull align 8 dereferenceable(80) %4) #20
  ret void
}

; Function Attrs: mustprogress nounwind uwtable
define linkonce_odr void @_ZN5faiss17IndexIVFInterfaceC2EPNS_5IndexEm(ptr noundef nonnull align 8 dereferenceable(104) %0, ptr noundef %1, i64 noundef %2) unnamed_addr #1 comdat align 2 {
  %4 = alloca ptr, align 8
  %5 = alloca ptr, align 8
  %6 = alloca i64, align 8
  store ptr %0, ptr %4, align 8, !tbaa !226
  store ptr %1, ptr %5, align 8, !tbaa !106
  store i64 %2, ptr %6, align 8, !tbaa !9
  %7 = load ptr, ptr %4, align 8
  %8 = getelementptr inbounds i8, ptr %7, i64 8
  %9 = load ptr, ptr %5, align 8, !tbaa !106
  %10 = load i64, ptr %6, align 8, !tbaa !9
  call void @_ZN5faiss15Level1QuantizerC2EPNS_5IndexEm(ptr noundef nonnull align 8 dereferenceable(80) %8, ptr noundef %9, i64 noundef %10)
  store ptr getelementptr inbounds inrange(-16, 32) ({ [6 x ptr] }, ptr @_ZTVN5faiss17IndexIVFInterfaceE, i32 0, i32 0, i32 2), ptr %7, align 8, !tbaa !23
  %11 = getelementptr inbounds nuw %"struct.faiss::IndexIVFInterface", ptr %7, i32 0, i32 2
  store i64 1, ptr %11, align 8, !tbaa !115
  %12 = getelementptr inbounds nuw %"struct.faiss::IndexIVFInterface", ptr %7, i32 0, i32 3
  store i64 0, ptr %12, align 8, !tbaa !117
  ret void
}

; Function Attrs: mustprogress nounwind uwtable
define linkonce_odr void @_ZN5faiss5IndexC2ElNS_10MetricTypeE(ptr noundef nonnull align 8 dereferenceable(36) %0, i64 noundef %1, i32 noundef %2) unnamed_addr #1 comdat align 2 {
  %4 = alloca ptr, align 8
  %5 = alloca i64, align 8
  %6 = alloca i32, align 4
  store ptr %0, ptr %4, align 8, !tbaa !106
  store i64 %1, ptr %5, align 8, !tbaa !9
  store i32 %2, ptr %6, align 4, !tbaa !155
  %7 = load ptr, ptr %4, align 8
  store ptr getelementptr inbounds inrange(-16, 184) ({ [25 x ptr] }, ptr @_ZTVN5faiss5IndexE, i32 0, i32 0, i32 2), ptr %7, align 8, !tbaa !23
  %8 = getelementptr inbounds nuw %"struct.faiss::Index", ptr %7, i32 0, i32 1
  %9 = load i64, ptr %5, align 8, !tbaa !9
  %10 = trunc i64 %9 to i32
  store i32 %10, ptr %8, align 8, !tbaa !52
  %11 = getelementptr inbounds nuw %"struct.faiss::Index", ptr %7, i32 0, i32 3
  store i64 0, ptr %11, align 8, !tbaa !100
  %12 = getelementptr inbounds nuw %"struct.faiss::Index", ptr %7, i32 0, i32 4
  store i8 0, ptr %12, align 8, !tbaa !47
  %13 = getelementptr inbounds nuw %"struct.faiss::Index", ptr %7, i32 0, i32 5
  store i8 1, ptr %13, align 1, !tbaa !75
  %14 = getelementptr inbounds nuw %"struct.faiss::Index", ptr %7, i32 0, i32 7
  %15 = load i32, ptr %6, align 4, !tbaa !155
  store i32 %15, ptr %14, align 4, !tbaa !51
  %16 = getelementptr inbounds nuw %"struct.faiss::Index", ptr %7, i32 0, i32 8
  store float 0.000000e+00, ptr %16, align 8, !tbaa !225
  ret void
}

; Function Attrs: mustprogress uwtable
define void @_ZN5faiss8IndexIVFC2Ev(ptr noundef nonnull align 8 dereferenceable(265) %0) unnamed_addr #0 align 2 personality ptr @__gxx_personality_v0 {
  %2 = alloca ptr, align 8
  %3 = alloca ptr, align 8
  %4 = alloca i32, align 4
  store ptr %0, ptr %2, align 8, !tbaa !45
  %5 = load ptr, ptr %2, align 8
  call void @_ZN5faiss5IndexC2ElNS_10MetricTypeE(ptr noundef nonnull align 8 dereferenceable(36) %5, i64 noundef 0, i32 noundef 1)
  %6 = getelementptr inbounds i8, ptr %5, i64 40
  call void @_ZN5faiss17IndexIVFInterfaceC2EPNS_5IndexEm(ptr noundef nonnull align 8 dereferenceable(104) %6, ptr noundef null, i64 noundef 0)
  store ptr getelementptr inbounds inrange(-16, 272) ({ [36 x ptr], [6 x ptr] }, ptr @_ZTVN5faiss8IndexIVFE, i32 0, i32 0, i32 2), ptr %5, align 8, !tbaa !23
  %7 = getelementptr inbounds i8, ptr %5, i64 40
  store ptr getelementptr inbounds inrange(-16, 32) ({ [36 x ptr], [6 x ptr] }, ptr @_ZTVN5faiss8IndexIVFE, i32 0, i32 1, i32 2), ptr %7, align 8, !tbaa !23
  %8 = getelementptr inbounds nuw %"struct.faiss::IndexIVF", ptr %5, i32 0, i32 3
  store ptr null, ptr %8, align 8, !tbaa !98
  %9 = getelementptr inbounds nuw %"struct.faiss::IndexIVF", ptr %5, i32 0, i32 4
  store i8 0, ptr %9, align 8, !tbaa !224
  %10 = getelementptr inbounds nuw %"struct.faiss::IndexIVF", ptr %5, i32 0, i32 6
  store i64 0, ptr %10, align 8, !tbaa !105
  %11 = getelementptr inbounds nuw %"struct.faiss::IndexIVF", ptr %5, i32 0, i32 7
  store i32 0, ptr %11, align 8, !tbaa !86
  %12 = getelementptr inbounds nuw %"struct.faiss::IndexIVF", ptr %5, i32 0, i32 8
  store i32 1024, ptr %12, align 4, !tbaa !87
  %13 = getelementptr inbounds nuw %"struct.faiss::IndexIVF", ptr %5, i32 0, i32 9
  invoke void @_ZN5faiss9DirectMapC1Ev(ptr noundef nonnull align 8 dereferenceable(88) %13)
          to label %14 unwind label %16

14:                                               ; preds = %1
  %15 = getelementptr inbounds nuw %"struct.faiss::IndexIVF", ptr %5, i32 0, i32 10
  store i8 1, ptr %15, align 8, !tbaa !53
  ret void

16:                                               ; preds = %1
  %17 = landingpad { ptr, i32 }
          cleanup
  %18 = extractvalue { ptr, i32 } %17, 0
  store ptr %18, ptr %3, align 8
  %19 = extractvalue { ptr, i32 } %17, 1
  store i32 %19, ptr %4, align 4
  %20 = getelementptr inbounds i8, ptr %5, i64 40
  call void @_ZN5faiss17IndexIVFInterfaceD2Ev(ptr noundef nonnull align 8 dereferenceable(104) %20) #20
  call void @_ZN5faiss5IndexD2Ev(ptr noundef nonnull align 8 dereferenceable(36) %5) #20
  br label %21

21:                                               ; preds = %16
  %22 = load ptr, ptr %3, align 8
  %23 = load i32, ptr %4, align 4
  %24 = insertvalue { ptr, i32 } poison, ptr %22, 0
  %25 = insertvalue { ptr, i32 } %24, i32 %23, 1
  resume { ptr, i32 } %25
}