; Function Attrs: mustprogress uwtable
define void @_ZN5faiss8IndexIVFC2Ev(ptr noundef nonnull align 8 dereferenceable(265) initializes((0, 12), (16, 26), (28, 36), (40, 66), (72, 85), (88, 100), (104, 114), (120, 153), (160, 176)) %0) unnamed_addr #0 align 2 personality ptr @__gxx_personality_v0 {
  %2 = getelementptr inbounds nuw i8, ptr %0, i64 8
  store i32 0, ptr %2, align 8, !tbaa !36
  %3 = getelementptr inbounds nuw i8, ptr %0, i64 16
  store i64 0, ptr %3, align 8, !tbaa !98
  %4 = getelementptr inbounds nuw i8, ptr %0, i64 24
  store i8 0, ptr %4, align 8, !tbaa !31
  %5 = getelementptr inbounds nuw i8, ptr %0, i64 25
  store i8 1, ptr %5, align 1, !tbaa !58
  %6 = getelementptr inbounds nuw i8, ptr %0, i64 28
  store i32 1, ptr %6, align 4, !tbaa !35
  %7 = getelementptr inbounds nuw i8, ptr %0, i64 32
  store float 0.000000e+00, ptr %7, align 8, !tbaa !160
  %8 = getelementptr inbounds nuw i8, ptr %0, i64 40
  %9 = getelementptr inbounds nuw i8, ptr %0, i64 48
  %10 = getelementptr inbounds nuw i8, ptr %0, i64 72
  %11 = getelementptr inbounds nuw i8, ptr %0, i64 76
  tail call void @llvm.memset.p0.i64(ptr noundef nonnull align 8 dereferenceable(18) %9, i8 0, i64 18, i1 false)
  store i32 1, ptr %11, align 4, !tbaa !137
  %12 = getelementptr inbounds nuw i8, ptr %0, i64 80
  %13 = getelementptr inbounds nuw i8, ptr %0, i64 88
  tail call void @llvm.memset.p0.i64(ptr noundef nonnull align 8 dereferenceable(5) %12, i8 0, i64 5, i1 false)
  store i32 39, ptr %13, align 8, !tbaa !138
  %14 = getelementptr inbounds nuw i8, ptr %0, i64 92
  store i32 256, ptr %14, align 4, !tbaa !139
  %15 = getelementptr inbounds nuw i8, ptr %0, i64 96
  store i32 1234, ptr %15, align 8, !tbaa !140
  %16 = getelementptr inbounds nuw i8, ptr %0, i64 104
  store i64 32768, ptr %16, align 8, !tbaa !141
  %17 = getelementptr inbounds nuw i8, ptr %0, i64 112
  store i8 1, ptr %17, align 8, !tbaa !142
  %18 = getelementptr inbounds nuw i8, ptr %0, i64 113
  store i8 0, ptr %18, align 1, !tbaa !143
  %19 = getelementptr inbounds nuw i8, ptr %0, i64 120
  store ptr null, ptr %19, align 8, !tbaa !144
  store i32 10, ptr %10, align 8, !tbaa !145
  %20 = getelementptr inbounds nuw i8, ptr %0, i64 128
  store i64 1, ptr %20, align 8, !tbaa !161
  %21 = getelementptr inbounds nuw i8, ptr %0, i64 136
  store i64 0, ptr %21, align 8, !tbaa !162
  store ptr getelementptr inbounds nuw inrange(-16, 272) (i8, ptr @_ZTVN5faiss8IndexIVFE, i64 16), ptr %0, align 8, !tbaa !14
  store ptr getelementptr inbounds nuw inrange(-16, 32) (i8, ptr @_ZTVN5faiss8IndexIVFE, i64 304), ptr %8, align 8, !tbaa !14
  %22 = getelementptr inbounds nuw i8, ptr %0, i64 144
  store ptr null, ptr %22, align 8, !tbaa !97
  %23 = getelementptr inbounds nuw i8, ptr %0, i64 152
  store i8 0, ptr %23, align 8, !tbaa !163
  %24 = getelementptr inbounds nuw i8, ptr %0, i64 160
  store i64 0, ptr %24, align 8, !tbaa !103
  %25 = getelementptr inbounds nuw i8, ptr %0, i64 168
  store i32 0, ptr %25, align 8, !tbaa !76
  %26 = getelementptr inbounds nuw i8, ptr %0, i64 172
  store i32 1024, ptr %26, align 4, !tbaa !77
  %27 = getelementptr inbounds nuw i8, ptr %0, i64 176
  invoke void @_ZN5faiss9DirectMapC1Ev(ptr noundef nonnull align 8 dereferenceable(88) %27)
          to label %28 unwind label %30

28:                                               ; preds = %1
  %29 = getelementptr inbounds nuw i8, ptr %0, i64 264
  store i8 1, ptr %29, align 8, !tbaa !37
  ret void

30:                                               ; preds = %1
  %31 = landingpad { ptr, i32 }
          cleanup
  %32 = getelementptr inbounds nuw i8, ptr %0, i64 65
  %33 = load i8, ptr %32, align 1, !tbaa !136, !range !12, !noundef !13
  %34 = trunc nuw i8 %33 to i1
  br i1 %34, label %35, label %_ZN5faiss17IndexIVFInterfaceD2Ev.exit

35:                                               ; preds = %30
  %36 = load ptr, ptr %9, align 8, !tbaa !57
  %37 = icmp eq ptr %36, null
  br i1 %37, label %_ZN5faiss17IndexIVFInterfaceD2Ev.exit, label %38

38:                                               ; preds = %35
  %39 = load ptr, ptr %36, align 8, !tbaa !14
  %40 = getelementptr inbounds nuw i8, ptr %39, i64 8
  %41 = load ptr, ptr %40, align 8
  tail call void %41(ptr noundef nonnull align 8 dereferenceable(36) %36) #27
  br label %_ZN5faiss17IndexIVFInterfaceD2Ev.exit

_ZN5faiss17IndexIVFInterfaceD2Ev.exit:            ; preds = %30, %35, %38
  tail call void @_ZN5faiss5IndexD2Ev(ptr noundef nonnull align 8 dereferenceable(36) %0) #27
  resume { ptr, i32 } %31
}